ARM GAS  C:\Users\z0037rdx\AppData\Local\Temp\ccUiTL4j.s 			page 1


   1              		.cpu cortex-m4
   2              		.eabi_attribute 27, 1
   3              		.eabi_attribute 28, 1
   4              		.eabi_attribute 20, 1
   5              		.eabi_attribute 21, 1
   6              		.eabi_attribute 23, 3
   7              		.eabi_attribute 24, 1
   8              		.eabi_attribute 25, 1
   9              		.eabi_attribute 26, 1
  10              		.eabi_attribute 30, 1
  11              		.eabi_attribute 34, 1
  12              		.eabi_attribute 18, 4
  13              		.file	"main.c"
  14              		.text
  15              	.Ltext0:
  16              		.cfi_sections	.debug_frame
  17              		.section	.text.delay,"ax",%progbits
  18              		.align	1
  19              		.global	delay
  20              		.syntax unified
  21              		.thumb
  22              		.thumb_func
  23              		.fpu fpv4-sp-d16
  25              	delay:
  26              	.LFB128:
  27              		.file 1 "Src/main.c"
   1:Src/main.c    **** /**
   2:Src/main.c    ****   ******************************************************************************
   3:Src/main.c    ****   * File Name          : main.c
   4:Src/main.c    ****   * Description        : Main program body
   5:Src/main.c    ****   ******************************************************************************
   6:Src/main.c    ****   LED blinking
   7:Src/main.c    ****   ******************************************************************************
   8:Src/main.c    ****   */
   9:Src/main.c    **** 
  10:Src/main.c    **** /* Includes ------------------------------------------------------------------*/
  11:Src/main.c    **** #include "main.h"
  12:Src/main.c    **** #include "stm32f4xx_hal.h"
  13:Src/main.c    **** #include "gpio.h"
  14:Src/main.c    **** 
  15:Src/main.c    **** /* Private variables ---------------------------------------------------------*/
  16:Src/main.c    **** 
  17:Src/main.c    **** /* Private function prototypes -----------------------------------------------*/
  18:Src/main.c    **** void SystemClock_Config(void);
  19:Src/main.c    **** void delay (int a);
  20:Src/main.c    **** 
  21:Src/main.c    **** int main(void)
  22:Src/main.c    **** {
  23:Src/main.c    ****   /* MCU Configuration----------------------------------------------------------*/
  24:Src/main.c    ****   /* Reset of all peripherals, Initializes the Flash interface and the Systick. */
  25:Src/main.c    ****   HAL_Init();
  26:Src/main.c    ****   /* Configure the system clock */
  27:Src/main.c    ****   SystemClock_Config();
  28:Src/main.c    ****   /* Initialize all configured peripherals */
  29:Src/main.c    ****   MX_GPIO_Init();
  30:Src/main.c    **** 
  31:Src/main.c    ****   while (1)
ARM GAS  C:\Users\z0037rdx\AppData\Local\Temp\ccUiTL4j.s 			page 2


  32:Src/main.c    ****   {
  33:Src/main.c    ****   HAL_GPIO_WritePin(GPIOD, LED4_Pin|LED3_Pin|LED5_Pin|LED6_Pin, GPIO_PIN_RESET);
  34:Src/main.c    ****   delay(1000000);
  35:Src/main.c    ****   HAL_GPIO_WritePin(GPIOD, LED4_Pin|LED3_Pin|LED5_Pin|LED6_Pin, GPIO_PIN_SET);
  36:Src/main.c    ****   delay(1000000);
  37:Src/main.c    ****   
  38:Src/main.c    ****   }
  39:Src/main.c    **** }
  40:Src/main.c    **** 
  41:Src/main.c    **** /** System Clock Configuration
  42:Src/main.c    **** */
  43:Src/main.c    **** void SystemClock_Config(void)
  44:Src/main.c    **** {
  45:Src/main.c    **** 
  46:Src/main.c    ****   RCC_OscInitTypeDef RCC_OscInitStruct;
  47:Src/main.c    ****   RCC_ClkInitTypeDef RCC_ClkInitStruct;
  48:Src/main.c    **** 
  49:Src/main.c    ****     /**Configure the main internal regulator output voltage 
  50:Src/main.c    ****     */
  51:Src/main.c    ****   __HAL_RCC_PWR_CLK_ENABLE();
  52:Src/main.c    **** 
  53:Src/main.c    ****   __HAL_PWR_VOLTAGESCALING_CONFIG(PWR_REGULATOR_VOLTAGE_SCALE1);
  54:Src/main.c    **** 
  55:Src/main.c    ****     /**Initializes the CPU, AHB and APB busses clocks 
  56:Src/main.c    ****     */
  57:Src/main.c    ****   RCC_OscInitStruct.OscillatorType = RCC_OSCILLATORTYPE_HSI;
  58:Src/main.c    ****   RCC_OscInitStruct.HSIState = RCC_HSI_ON;
  59:Src/main.c    ****   RCC_OscInitStruct.HSICalibrationValue = 16;
  60:Src/main.c    ****   RCC_OscInitStruct.PLL.PLLState = RCC_PLL_NONE;
  61:Src/main.c    ****   if (HAL_RCC_OscConfig(&RCC_OscInitStruct) != HAL_OK)
  62:Src/main.c    ****   {
  63:Src/main.c    ****     _Error_Handler(__FILE__, __LINE__);
  64:Src/main.c    ****   }
  65:Src/main.c    **** 
  66:Src/main.c    ****     /**Initializes the CPU, AHB and APB busses clocks
  67:Src/main.c    ****     */
  68:Src/main.c    ****   RCC_ClkInitStruct.ClockType = RCC_CLOCKTYPE_HCLK|RCC_CLOCKTYPE_SYSCLK
  69:Src/main.c    ****                               |RCC_CLOCKTYPE_PCLK1|RCC_CLOCKTYPE_PCLK2;
  70:Src/main.c    ****   RCC_ClkInitStruct.SYSCLKSource = RCC_SYSCLKSOURCE_HSI;
  71:Src/main.c    ****   RCC_ClkInitStruct.AHBCLKDivider = RCC_SYSCLK_DIV1;
  72:Src/main.c    ****   RCC_ClkInitStruct.APB1CLKDivider = RCC_HCLK_DIV1;
  73:Src/main.c    ****   RCC_ClkInitStruct.APB2CLKDivider = RCC_HCLK_DIV1;
  74:Src/main.c    **** 
  75:Src/main.c    ****   if (HAL_RCC_ClockConfig(&RCC_ClkInitStruct, FLASH_LATENCY_0) != HAL_OK)
  76:Src/main.c    ****   {
  77:Src/main.c    ****     _Error_Handler(__FILE__, __LINE__);
  78:Src/main.c    ****   }
  79:Src/main.c    **** 
  80:Src/main.c    ****     /**Configure the Systick interrupt time 
  81:Src/main.c    ****     */
  82:Src/main.c    ****   HAL_SYSTICK_Config(HAL_RCC_GetHCLKFreq()/1000);
  83:Src/main.c    **** 
  84:Src/main.c    ****     /**Configure the Systick 
  85:Src/main.c    ****     */
  86:Src/main.c    ****   HAL_SYSTICK_CLKSourceConfig(SYSTICK_CLKSOURCE_HCLK);
  87:Src/main.c    **** 
  88:Src/main.c    ****   /* SysTick_IRQn interrupt configuration */
ARM GAS  C:\Users\z0037rdx\AppData\Local\Temp\ccUiTL4j.s 			page 3


  89:Src/main.c    ****   HAL_NVIC_SetPriority(SysTick_IRQn, 0, 0);
  90:Src/main.c    **** }
  91:Src/main.c    **** 
  92:Src/main.c    **** void delay (int a)
  93:Src/main.c    **** {
  28              		.loc 1 93 0
  29              		.cfi_startproc
  30              		@ args = 0, pretend = 0, frame = 8
  31              		@ frame_needed = 0, uses_anonymous_args = 0
  32              		@ link register save eliminated.
  33              	.LVL0:
  34 0000 82B0     		sub	sp, sp, #8
  35              	.LCFI0:
  36              		.cfi_def_cfa_offset 8
  94:Src/main.c    **** 	volatile int i,j;
  95:Src/main.c    **** 	
  96:Src/main.c    **** 	for (i=0 ; i < a ; i++)
  37              		.loc 1 96 0
  38 0002 0023     		movs	r3, #0
  39 0004 0193     		str	r3, [sp, #4]
  40 0006 05E0     		b	.L2
  41              	.L3:
  97:Src/main.c    **** 	{ 
  98:Src/main.c    **** 		j++;
  42              		.loc 1 98 0 discriminator 3
  43 0008 009B     		ldr	r3, [sp]
  44 000a 0133     		adds	r3, r3, #1
  45 000c 0093     		str	r3, [sp]
  96:Src/main.c    **** 	{ 
  46              		.loc 1 96 0 discriminator 3
  47 000e 019B     		ldr	r3, [sp, #4]
  48 0010 0133     		adds	r3, r3, #1
  49 0012 0193     		str	r3, [sp, #4]
  50              	.L2:
  96:Src/main.c    **** 	{ 
  51              		.loc 1 96 0 is_stmt 0 discriminator 1
  52 0014 019B     		ldr	r3, [sp, #4]
  53 0016 8342     		cmp	r3, r0
  54 0018 F6DB     		blt	.L3
  99:Src/main.c    **** 	}
 100:Src/main.c    **** 	
 101:Src/main.c    **** 	return;
 102:Src/main.c    **** }
  55              		.loc 1 102 0 is_stmt 1
  56 001a 02B0     		add	sp, sp, #8
  57              	.LCFI1:
  58              		.cfi_def_cfa_offset 0
  59              		@ sp needed
  60 001c 7047     		bx	lr
  61              		.cfi_endproc
  62              	.LFE128:
  64              		.section	.text._Error_Handler,"ax",%progbits
  65              		.align	1
  66              		.global	_Error_Handler
  67              		.syntax unified
  68              		.thumb
  69              		.thumb_func
ARM GAS  C:\Users\z0037rdx\AppData\Local\Temp\ccUiTL4j.s 			page 4


  70              		.fpu fpv4-sp-d16
  72              	_Error_Handler:
  73              	.LFB129:
 103:Src/main.c    **** 
 104:Src/main.c    **** /**
 105:Src/main.c    ****   * @brief  This function is executed in case of error occurrence.
 106:Src/main.c    ****   * @param  None
 107:Src/main.c    ****   * @retval None
 108:Src/main.c    ****   */
 109:Src/main.c    **** void _Error_Handler(char * file, int line)
 110:Src/main.c    **** {
  74              		.loc 1 110 0
  75              		.cfi_startproc
  76              		@ Volatile: function does not return.
  77              		@ args = 0, pretend = 0, frame = 0
  78              		@ frame_needed = 0, uses_anonymous_args = 0
  79              		@ link register save eliminated.
  80              	.LVL1:
  81              	.L6:
  82 0000 FEE7     		b	.L6
  83              		.cfi_endproc
  84              	.LFE129:
  86              		.section	.text.SystemClock_Config,"ax",%progbits
  87              		.align	1
  88              		.global	SystemClock_Config
  89              		.syntax unified
  90              		.thumb
  91              		.thumb_func
  92              		.fpu fpv4-sp-d16
  94              	SystemClock_Config:
  95              	.LFB127:
  44:Src/main.c    **** 
  96              		.loc 1 44 0
  97              		.cfi_startproc
  98              		@ args = 0, pretend = 0, frame = 80
  99              		@ frame_needed = 0, uses_anonymous_args = 0
  44:Src/main.c    **** 
 100              		.loc 1 44 0
 101 0000 00B5     		push	{lr}
 102              	.LCFI2:
 103              		.cfi_def_cfa_offset 4
 104              		.cfi_offset 14, -4
 105 0002 95B0     		sub	sp, sp, #84
 106              	.LCFI3:
 107              		.cfi_def_cfa_offset 88
 108              	.LBB2:
  51:Src/main.c    **** 
 109              		.loc 1 51 0
 110 0004 0023     		movs	r3, #0
 111 0006 0193     		str	r3, [sp, #4]
 112 0008 234A     		ldr	r2, .L13
 113 000a 116C     		ldr	r1, [r2, #64]
 114 000c 41F08051 		orr	r1, r1, #268435456
 115 0010 1164     		str	r1, [r2, #64]
 116 0012 126C     		ldr	r2, [r2, #64]
 117 0014 02F08052 		and	r2, r2, #268435456
 118 0018 0192     		str	r2, [sp, #4]
ARM GAS  C:\Users\z0037rdx\AppData\Local\Temp\ccUiTL4j.s 			page 5


 119 001a 019A     		ldr	r2, [sp, #4]
 120              	.LBE2:
 121              	.LBB3:
  53:Src/main.c    **** 
 122              		.loc 1 53 0
 123 001c 0293     		str	r3, [sp, #8]
 124 001e 1F4A     		ldr	r2, .L13+4
 125 0020 1168     		ldr	r1, [r2]
 126 0022 41F48041 		orr	r1, r1, #16384
 127 0026 1160     		str	r1, [r2]
 128 0028 1268     		ldr	r2, [r2]
 129 002a 02F48042 		and	r2, r2, #16384
 130 002e 0292     		str	r2, [sp, #8]
 131 0030 029A     		ldr	r2, [sp, #8]
 132              	.LBE3:
  57:Src/main.c    ****   RCC_OscInitStruct.HSIState = RCC_HSI_ON;
 133              		.loc 1 57 0
 134 0032 0222     		movs	r2, #2
 135 0034 0892     		str	r2, [sp, #32]
  58:Src/main.c    ****   RCC_OscInitStruct.HSICalibrationValue = 16;
 136              		.loc 1 58 0
 137 0036 0122     		movs	r2, #1
 138 0038 0B92     		str	r2, [sp, #44]
  59:Src/main.c    ****   RCC_OscInitStruct.PLL.PLLState = RCC_PLL_NONE;
 139              		.loc 1 59 0
 140 003a 1022     		movs	r2, #16
 141 003c 0C92     		str	r2, [sp, #48]
  60:Src/main.c    ****   if (HAL_RCC_OscConfig(&RCC_OscInitStruct) != HAL_OK)
 142              		.loc 1 60 0
 143 003e 0E93     		str	r3, [sp, #56]
  61:Src/main.c    ****   {
 144              		.loc 1 61 0
 145 0040 08A8     		add	r0, sp, #32
 146 0042 FFF7FEFF 		bl	HAL_RCC_OscConfig
 147              	.LVL2:
 148 0046 F0B9     		cbnz	r0, .L11
  68:Src/main.c    ****                               |RCC_CLOCKTYPE_PCLK1|RCC_CLOCKTYPE_PCLK2;
 149              		.loc 1 68 0
 150 0048 0F23     		movs	r3, #15
 151 004a 0393     		str	r3, [sp, #12]
  70:Src/main.c    ****   RCC_ClkInitStruct.AHBCLKDivider = RCC_SYSCLK_DIV1;
 152              		.loc 1 70 0
 153 004c 0021     		movs	r1, #0
 154 004e 0491     		str	r1, [sp, #16]
  71:Src/main.c    ****   RCC_ClkInitStruct.APB1CLKDivider = RCC_HCLK_DIV1;
 155              		.loc 1 71 0
 156 0050 0591     		str	r1, [sp, #20]
  72:Src/main.c    ****   RCC_ClkInitStruct.APB2CLKDivider = RCC_HCLK_DIV1;
 157              		.loc 1 72 0
 158 0052 0691     		str	r1, [sp, #24]
  73:Src/main.c    **** 
 159              		.loc 1 73 0
 160 0054 0791     		str	r1, [sp, #28]
  75:Src/main.c    ****   {
 161              		.loc 1 75 0
 162 0056 03A8     		add	r0, sp, #12
 163 0058 FFF7FEFF 		bl	HAL_RCC_ClockConfig
ARM GAS  C:\Users\z0037rdx\AppData\Local\Temp\ccUiTL4j.s 			page 6


 164              	.LVL3:
 165 005c B8B9     		cbnz	r0, .L12
  82:Src/main.c    **** 
 166              		.loc 1 82 0
 167 005e FFF7FEFF 		bl	HAL_RCC_GetHCLKFreq
 168              	.LVL4:
 169 0062 0F4B     		ldr	r3, .L13+8
 170 0064 A3FB0030 		umull	r3, r0, r3, r0
 171 0068 8009     		lsrs	r0, r0, #6
 172 006a FFF7FEFF 		bl	HAL_SYSTICK_Config
 173              	.LVL5:
  86:Src/main.c    **** 
 174              		.loc 1 86 0
 175 006e 0420     		movs	r0, #4
 176 0070 FFF7FEFF 		bl	HAL_SYSTICK_CLKSourceConfig
 177              	.LVL6:
  89:Src/main.c    **** }
 178              		.loc 1 89 0
 179 0074 0022     		movs	r2, #0
 180 0076 1146     		mov	r1, r2
 181 0078 4FF0FF30 		mov	r0, #-1
 182 007c FFF7FEFF 		bl	HAL_NVIC_SetPriority
 183              	.LVL7:
  90:Src/main.c    **** 
 184              		.loc 1 90 0
 185 0080 15B0     		add	sp, sp, #84
 186              	.LCFI4:
 187              		.cfi_remember_state
 188              		.cfi_def_cfa_offset 4
 189              		@ sp needed
 190 0082 5DF804FB 		ldr	pc, [sp], #4
 191              	.L11:
 192              	.LCFI5:
 193              		.cfi_restore_state
  63:Src/main.c    ****   }
 194              		.loc 1 63 0
 195 0086 3F21     		movs	r1, #63
 196 0088 0648     		ldr	r0, .L13+12
 197 008a FFF7FEFF 		bl	_Error_Handler
 198              	.LVL8:
 199              	.L12:
  77:Src/main.c    ****   }
 200              		.loc 1 77 0
 201 008e 4D21     		movs	r1, #77
 202 0090 0448     		ldr	r0, .L13+12
 203 0092 FFF7FEFF 		bl	_Error_Handler
 204              	.LVL9:
 205              	.L14:
 206 0096 00BF     		.align	2
 207              	.L13:
 208 0098 00380240 		.word	1073887232
 209 009c 00700040 		.word	1073770496
 210 00a0 D34D6210 		.word	274877907
 211 00a4 00000000 		.word	.LC0
 212              		.cfi_endproc
 213              	.LFE127:
 215              		.section	.text.main,"ax",%progbits
ARM GAS  C:\Users\z0037rdx\AppData\Local\Temp\ccUiTL4j.s 			page 7


 216              		.align	1
 217              		.global	main
 218              		.syntax unified
 219              		.thumb
 220              		.thumb_func
 221              		.fpu fpv4-sp-d16
 223              	main:
 224              	.LFB126:
  22:Src/main.c    ****   /* MCU Configuration----------------------------------------------------------*/
 225              		.loc 1 22 0
 226              		.cfi_startproc
 227              		@ Volatile: function does not return.
 228              		@ args = 0, pretend = 0, frame = 0
 229              		@ frame_needed = 0, uses_anonymous_args = 0
 230 0000 08B5     		push	{r3, lr}
 231              	.LCFI6:
 232              		.cfi_def_cfa_offset 8
 233              		.cfi_offset 3, -8
 234              		.cfi_offset 14, -4
  25:Src/main.c    ****   /* Configure the system clock */
 235              		.loc 1 25 0
 236 0002 FFF7FEFF 		bl	HAL_Init
 237              	.LVL10:
  27:Src/main.c    ****   /* Initialize all configured peripherals */
 238              		.loc 1 27 0
 239 0006 FFF7FEFF 		bl	SystemClock_Config
 240              	.LVL11:
  29:Src/main.c    **** 
 241              		.loc 1 29 0
 242 000a FFF7FEFF 		bl	MX_GPIO_Init
 243              	.LVL12:
 244              	.L16:
  33:Src/main.c    ****   delay(1000000);
 245              		.loc 1 33 0 discriminator 1
 246 000e 0A4D     		ldr	r5, .L18
 247 0010 0022     		movs	r2, #0
 248 0012 4FF47041 		mov	r1, #61440
 249 0016 2846     		mov	r0, r5
 250 0018 FFF7FEFF 		bl	HAL_GPIO_WritePin
 251              	.LVL13:
  34:Src/main.c    ****   HAL_GPIO_WritePin(GPIOD, LED4_Pin|LED3_Pin|LED5_Pin|LED6_Pin, GPIO_PIN_SET);
 252              		.loc 1 34 0 discriminator 1
 253 001c 074C     		ldr	r4, .L18+4
 254 001e 2046     		mov	r0, r4
 255 0020 FFF7FEFF 		bl	delay
 256              	.LVL14:
  35:Src/main.c    ****   delay(1000000);
 257              		.loc 1 35 0 discriminator 1
 258 0024 0122     		movs	r2, #1
 259 0026 4FF47041 		mov	r1, #61440
 260 002a 2846     		mov	r0, r5
 261 002c FFF7FEFF 		bl	HAL_GPIO_WritePin
 262              	.LVL15:
  36:Src/main.c    ****   
 263              		.loc 1 36 0 discriminator 1
 264 0030 2046     		mov	r0, r4
 265 0032 FFF7FEFF 		bl	delay
ARM GAS  C:\Users\z0037rdx\AppData\Local\Temp\ccUiTL4j.s 			page 8


 266              	.LVL16:
 267 0036 EAE7     		b	.L16
 268              	.L19:
 269              		.align	2
 270              	.L18:
 271 0038 000C0240 		.word	1073875968
 272 003c 40420F00 		.word	1000000
 273              		.cfi_endproc
 274              	.LFE126:
 276              		.section	.rodata.SystemClock_Config.str1.4,"aMS",%progbits,1
 277              		.align	2
 278              	.LC0:
 279 0000 5372632F 		.ascii	"Src/main.c\000"
 279      6D61696E 
 279      2E6300
 280              		.text
 281              	.Letext0:
 282              		.file 2 "c:\\program files (x86)\\gnu tools arm embedded\\7 2017-q4-major\\arm-none-eabi\\include\
 283              		.file 3 "c:\\program files (x86)\\gnu tools arm embedded\\7 2017-q4-major\\arm-none-eabi\\include\
 284              		.file 4 "Drivers/CMSIS/Include/core_cm4.h"
 285              		.file 5 "Drivers/CMSIS/Device/ST/STM32F4xx/Include/system_stm32f4xx.h"
 286              		.file 6 "Drivers/CMSIS/Device/ST/STM32F4xx/Include/stm32f407xx.h"
 287              		.file 7 "c:\\program files (x86)\\gnu tools arm embedded\\7 2017-q4-major\\arm-none-eabi\\include\
 288              		.file 8 "c:\\program files (x86)\\gnu tools arm embedded\\7 2017-q4-major\\arm-none-eabi\\include\
 289              		.file 9 "c:\\program files (x86)\\gnu tools arm embedded\\7 2017-q4-major\\lib\\gcc\\arm-none-eabi
 290              		.file 10 "c:\\program files (x86)\\gnu tools arm embedded\\7 2017-q4-major\\arm-none-eabi\\include
 291              		.file 11 "Drivers/STM32F4xx_HAL_Driver/Inc/stm32f4xx_hal_def.h"
 292              		.file 12 "Drivers/STM32F4xx_HAL_Driver/Inc/stm32f4xx_hal_rcc_ex.h"
 293              		.file 13 "Drivers/STM32F4xx_HAL_Driver/Inc/stm32f4xx_hal_rcc.h"
 294              		.file 14 "Drivers/STM32F4xx_HAL_Driver/Inc/stm32f4xx_hal_gpio.h"
 295              		.file 15 "Drivers/STM32F4xx_HAL_Driver/Inc/stm32f4xx_hal_cortex.h"
 296              		.file 16 "Drivers/STM32F4xx_HAL_Driver/Inc/stm32f4xx_hal.h"
 297              		.file 17 "Inc/gpio.h"
ARM GAS  C:\Users\z0037rdx\AppData\Local\Temp\ccUiTL4j.s 			page 9

